target datalayout = "e-m:e-p270:32:32-p271:32:32-p272:64:64-i64:64-i128:128-f80:128-n8:16:32:64-S128"
target triple = "x86_64-pc-linux-gnu"

@_ZZN2cv3dnn14dnn4_v2024122326getParam_DNN_CHECK_NAN_INFEvE17DNN_CHECK_NAN_INF = internal global i8 0, align 1
@_ZGVZN2cv3dnn14dnn4_v2024122326getParam_DNN_CHECK_NAN_INFEvE17DNN_CHECK_NAN_INF = internal global i64 0, align 8
@.str.3 = private unnamed_addr constant [25 x i8] c"OPENCV_DNN_CHECK_NAN_INF\00", align 1

; Function Attrs: mustprogress uwtable
define hidden noundef zeroext i1 @_ZN2cv3dnn14dnn4_v2024122326getParam_DNN_CHECK_NAN_INFEv() #4 personality ptr @__gxx_personality_v0 {
  %1 = alloca ptr, align 8
  %2 = alloca i32, align 4
  %3 = load atomic i8, ptr @_ZGVZN2cv3dnn14dnn4_v2024122326getParam_DNN_CHECK_NAN_INFEvE17DNN_CHECK_NAN_INF acquire, align 8
  %4 = icmp eq i8 %3, 0
  br i1 %4, label %5, label %12, !prof !3

5:                                                ; preds = %0
  %6 = call i32 @__cxa_guard_acquire(ptr @_ZGVZN2cv3dnn14dnn4_v2024122326getParam_DNN_CHECK_NAN_INFEvE17DNN_CHECK_NAN_INF) #3
  %7 = icmp ne i32 %6, 0
  br i1 %7, label %8, label %12

8:                                                ; preds = %5
  %9 = invoke noundef zeroext i1 @_ZN2cv5utils29getConfigurationParameterBoolEPKcb(ptr noundef @.str.3, i1 noundef zeroext false)
          to label %10 unwind label %15

10:                                               ; preds = %8
  %11 = zext i1 %9 to i8
  store i8 %11, ptr @_ZZN2cv3dnn14dnn4_v2024122326getParam_DNN_CHECK_NAN_INFEvE17DNN_CHECK_NAN_INF, align 1, !tbaa !8
  call void @__cxa_guard_release(ptr @_ZGVZN2cv3dnn14dnn4_v2024122326getParam_DNN_CHECK_NAN_INFEvE17DNN_CHECK_NAN_INF) #3
  br label %12

12:                                               ; preds = %10, %5, %0
  %13 = load i8, ptr @_ZZN2cv3dnn14dnn4_v2024122326getParam_DNN_CHECK_NAN_INFEvE17DNN_CHECK_NAN_INF, align 1, !tbaa !8, !range !10, !noundef !11
  %14 = trunc i8 %13 to i1
  ret i1 %14

15:                                               ; preds = %8
  %16 = landingpad { ptr, i32 }
          cleanup
  %17 = extractvalue { ptr, i32 } %16, 0
  store ptr %17, ptr %1, align 8
  %18 = extractvalue { ptr, i32 } %16, 1
  store i32 %18, ptr %2, align 4
  call void @__cxa_guard_abort(ptr @_ZGVZN2cv3dnn14dnn4_v2024122326getParam_DNN_CHECK_NAN_INFEvE17DNN_CHECK_NAN_INF) #3
  br label %19

19:                                               ; preds = %15
  %20 = load ptr, ptr %1, align 8
  %21 = load i32, ptr %2, align 4
  %22 = insertvalue { ptr, i32 } poison, ptr %20, 0
  %23 = insertvalue { ptr, i32 } %22, i32 %21, 1
  resume { ptr, i32 } %23
}